; Function Attrs: mustprogress uwtable
define dso_local noundef zeroext i1 @_ZN24cmInstallTargetGenerator7ComputeEP16cmLocalGenerator(ptr noundef nonnull align 8 dereferenceable(282) %0, ptr noundef nonnull %1) unnamed_addr #3 align 2 {
  %3 = getelementptr inbounds i8, ptr %0, i64 200
  %4 = tail call noundef ptr @_ZNK16cmLocalGenerator32FindLocalNonAliasGeneratorTargetERKNSt7__cxx1112basic_stringIcSt11char_traitsIcESaIcEEE(ptr noundef nonnull align 8 dereferenceable(824) %1, ptr noundef nonnull align 8 dereferenceable(32) %3)
  %5 = getelementptr inbounds i8, ptr %0, i64 232
  store ptr %4, ptr %5, align 8
  %.not = icmp eq ptr %4, null
  br i1 %.not, label %6, label %10

6:                                                ; preds = %2
  %7 = getelementptr inbounds i8, ptr %1, i64 136
  %8 = load ptr, ptr %7, align 8
  %9 = tail call noundef ptr @_ZNK17cmGlobalGenerator19FindGeneratorTargetERKNSt7__cxx1112basic_stringIcSt11char_traitsIcESaIcEEE(ptr noundef nonnull align 8 dereferenceable(1778) %8, ptr noundef nonnull align 8 dereferenceable(32) %3)
  store ptr %9, ptr %5, align 8
  br label %10

10:                                               ; preds = %6, %2
  ret i1 true
}